target datalayout = "e-m:e-p270:32:32-p271:32:32-p272:64:64-i64:64-i128:128-f80:128-n8:16:32:64-S128"
target triple = "x86_64-pc-linux-gnu"

; Function Attrs: mustprogress uwtable
define hidden void @_ZN8MdiChild18qt_static_metacallEP7QObjectN11QMetaObject4CallEiPPv(ptr noundef %0, i32 noundef %1, i32 noundef %2, ptr noundef %3) #0 align 2 {
  %5 = alloca ptr, align 8
  %6 = alloca i32, align 4
  %7 = alloca i32, align 4
  %8 = alloca ptr, align 8
  %9 = alloca ptr, align 8
  store ptr %0, ptr %5, align 8
  store i32 %1, ptr %6, align 4
  store i32 %2, ptr %7, align 4
  store ptr %3, ptr %8, align 8
  %10 = load i32, ptr %6, align 4
  %11 = icmp eq i32 %10, 0
  br i1 %11, label %12, label %19

12:                                               ; preds = %4
  %13 = load ptr, ptr %5, align 8
  store ptr %13, ptr %9, align 8
  %14 = load i32, ptr %7, align 4
  switch i32 %14, label %17 [
    i32 0, label %15
  ]

15:                                               ; preds = %12
  %16 = load ptr, ptr %9, align 8
  call void @_ZN8MdiChild19documentWasModifiedEv(ptr noundef nonnull align 8 dereferenceable(153) %16)
  br label %18

17:                                               ; preds = %12
  br label %18

18:                                               ; preds = %17, %15
  br label %19

19:                                               ; preds = %18, %4
  ret void
}