; Function Attrs: mustprogress uwtable
define hidden void @_ZN8MdiChild18qt_static_metacallEP7QObjectN11QMetaObject4CallEiPPv(ptr noundef %0, i32 noundef %1, i32 noundef %2, ptr nocapture readnone %3) #0 align 2 {
  %5 = or i32 %2, %1
  %or.cond = icmp eq i32 %5, 0
  br i1 %or.cond, label %6, label %7

6:                                                ; preds = %4
  tail call void @_ZN8MdiChild19documentWasModifiedEv(ptr noundef nonnull align 8 dereferenceable(153) %0)
  br label %7

7:                                                ; preds = %6, %4
  ret void
}